; Function Attrs: mustprogress nofree norecurse nosync nounwind willreturn memory(read, argmem: readwrite, inaccessiblemem: none) uwtable
define void @_ZN10OpenSubdiv6v3_6_03Far15TopologyRefiner19initializeInventoryEv(ptr nocapture noundef nonnull align 8 dereferenceable(120) %0) local_unnamed_addr #6 align 2 {
  %2 = getelementptr inbounds nuw i8, ptr %0, i64 48
  %3 = getelementptr inbounds i8, ptr %0, i64 56
  %4 = load ptr, ptr %3, align 8
  %5 = load ptr, ptr %2, align 8
  %.not = icmp eq ptr %4, %5
  br i1 %.not, label %28, label %6

6:                                                ; preds = %1
  %7 = load ptr, ptr %5, align 8
  %8 = getelementptr inbounds nuw i8, ptr %7, i64 8
  %9 = load i32, ptr %8, align 8
  %10 = getelementptr inbounds nuw i8, ptr %0, i64 20
  store i32 %9, ptr %10, align 4
  %11 = getelementptr inbounds nuw i8, ptr %7, i64 4
  %12 = load i32, ptr %11, align 4
  %13 = getelementptr inbounds nuw i8, ptr %0, i64 24
  store i32 %12, ptr %13, align 8
  %14 = load i32, ptr %7, align 8
  %15 = getelementptr inbounds nuw i8, ptr %0, i64 28
  store i32 %14, ptr %15, align 4
  %16 = getelementptr inbounds nuw i8, ptr %7, i64 48
  %17 = getelementptr inbounds i8, ptr %7, i64 56
  %18 = load ptr, ptr %17, align 8
  %19 = load ptr, ptr %16, align 8
  %20 = ptrtoint ptr %18 to i64
  %21 = ptrtoint ptr %19 to i64
  %22 = sub i64 %20, %21
  %23 = lshr exact i64 %22, 2
  %24 = trunc i64 %23 to i32
  %25 = getelementptr inbounds nuw i8, ptr %0, i64 32
  store i32 %24, ptr %25, align 8
  %26 = getelementptr inbounds nuw i8, ptr %7, i64 20
  %27 = load i32, ptr %26, align 4
  br label %30

28:                                               ; preds = %1
  %29 = getelementptr inbounds nuw i8, ptr %0, i64 20
  tail call void @llvm.memset.p0.i64(ptr noundef nonnull align 4 dereferenceable(16) %29, i8 0, i64 16, i1 false)
  br label %30

30:                                               ; preds = %28, %6
  %.sink = phi i32 [ 0, %28 ], [ %27, %6 ]
  %31 = getelementptr inbounds nuw i8, ptr %0, i64 36
  store i32 %.sink, ptr %31, align 4
  ret void
}